; Function Attrs: null_pointer_is_valid sspstrong uwtable
define internal range(i32 -2147483646, -2147483648) i32 @decode_dataitem_extsupp(ptr noundef %0, ptr readnone captures(none) %1, ptr noundef %2, ptr readnone captures(none) %3) #0 {
  %5 = alloca i32, align 4
  %6 = tail call ptr @proto_tree_get_parent(ptr noundef %2)
  %7 = tail call i32 @tvb_captured_length(ptr noundef %0)
  call void @llvm.lifetime.start.p0(i64 4, ptr nonnull %5) #5
  %8 = load i32, ptr @hf_dlep_dataitem_extsupp, align 4
  %9 = tail call ptr @proto_tree_add_item(ptr noundef %2, i32 noundef %8, ptr noundef %0, i32 noundef 0, i32 noundef %7, i32 noundef 0)
  %.not.i = icmp eq ptr %9, null
  br i1 %.not.i, label %proto_item_set_hidden.exit, label %10

10:                                               ; preds = %4
  %11 = getelementptr inbounds nuw i8, ptr %9, i64 40
  %12 = load ptr, ptr %11, align 8
  %.not5.i = icmp eq ptr %12, null
  br i1 %.not5.i, label %proto_item_set_hidden.exit, label %13

13:                                               ; preds = %10
  %14 = getelementptr inbounds nuw i8, ptr %12, i64 28
  %15 = load i32, ptr %14, align 4
  %16 = or i32 %15, 1
  store i32 %16, ptr %14, align 4
  br label %proto_item_set_hidden.exit

proto_item_set_hidden.exit:                       ; preds = %4, %10, %13
  %17 = icmp sgt i32 %7, 0
  br i1 %17, label %.lr.ph, label %._crit_edge

.lr.ph:                                           ; preds = %proto_item_set_hidden.exit, %.lr.ph
  %.014 = phi i32 [ %23, %.lr.ph ], [ 0, %proto_item_set_hidden.exit ]
  %18 = load i32, ptr @hf_dlep_dataitem_extsupp_code, align 4
  %19 = call ptr @proto_tree_add_item_ret_uint(ptr noundef %2, i32 noundef %18, ptr noundef %0, i32 noundef %.014, i32 noundef 2, i32 noundef 0, ptr noundef nonnull %5)
  %20 = load i32, ptr %5, align 4
  %21 = call ptr @rval_to_str_const(i32 noundef %20, ptr noundef nonnull @extension_code_vals, ptr noundef nonnull @.str.200)
  %22 = load i32, ptr %5, align 4
  call void (ptr, ptr, ...) @proto_item_append_text(ptr noundef %6, ptr noundef nonnull @.str.211, ptr noundef %21, i32 noundef %22)
  %23 = add i32 %.014, 2
  %24 = icmp slt i32 %23, %7
  br i1 %24, label %.lr.ph, label %._crit_edge, !llvm.loop !10

._crit_edge:                                      ; preds = %.lr.ph, %proto_item_set_hidden.exit
  %.0.lcssa = phi i32 [ 0, %proto_item_set_hidden.exit ], [ %23, %.lr.ph ]
  call void @llvm.lifetime.end.p0(i64 4, ptr nonnull %5) #5
  ret i32 %.0.lcssa
}